target datalayout = "e-m:e-p270:32:32-p271:32:32-p272:64:64-i64:64-i128:128-f80:128-n8:16:32:64-S128"
target triple = "x86_64-unknown-linux-gnu"

%struct.QTailQLink = type { ptr, ptr }
%struct.GraphLockableMainloop = type {}
%struct.BlockDriverState = type { i32, i8, i8, i8, i8, i8, ptr, ptr, ptr, %struct.anon, i8, [4096 x i8], [4096 x i8], [4096 x i8], [16 x i8], ptr, [4096 x i8], %struct.BlockLimits, i32, i32, i32, i32, [32 x i8], %union.anon.0, %union.anon.1, %union.anon.2, i32, [16 x %struct.anon.3], ptr, %struct.anon.4, ptr, ptr, %struct.anon.5, ptr, ptr, i32, ptr, i64, i64, %struct.QemuMutex, %struct.anon.6, %struct.Stat64, i32, i32, i32, i32, i32, i32, %struct.QemuMutex, %struct.anon.7, %struct.CoQueue, i8, i32, i8, %struct.CoMutex, ptr, ptr }
%struct.anon = type { ptr }
%struct.BlockLimits = type { i32, i64, i32, i64, i32, i32, i32, i64, i32, i64, i64, i32, i8, i32, i32, i32, i32, i32, i32, i32 }
%union.anon.0 = type { %struct.QTailQLink }
%union.anon.1 = type { %struct.QTailQLink }
%union.anon.2 = type { %struct.QTailQLink }
%struct.anon.3 = type { ptr }
%struct.anon.4 = type { ptr }
%struct.anon.5 = type { ptr }
%struct.anon.6 = type { ptr }
%struct.Stat64 = type { i64 }
%struct.QemuMutex = type { %union.pthread_mutex_t, i8 }
%union.pthread_mutex_t = type { %struct.__pthread_mutex_s }
%struct.__pthread_mutex_s = type { i32, i32, i32, i32, i32, i16, i16, %struct.__pthread_internal_list }
%struct.__pthread_internal_list = type { ptr, ptr }
%struct.anon.7 = type { ptr }
%struct.CoQueue = type { %struct.anon.8 }
%struct.anon.8 = type { ptr, ptr }
%struct.CoMutex = type { i32, ptr, %struct.anon.9, %struct.anon.9, i32, i32, ptr }
%struct.anon.9 = type { ptr }
%struct.BlockDriver = type { ptr, i32, i8, i8, i8, i8, i8, i8, ptr, ptr, ptr, ptr, ptr, ptr, ptr, ptr, ptr, ptr, ptr, ptr, ptr, ptr, ptr, ptr, ptr, ptr, ptr, ptr, ptr, ptr, ptr, ptr, ptr, ptr, ptr, ptr, ptr, ptr, ptr, ptr, ptr, ptr, ptr, ptr, ptr, ptr, ptr, ptr, ptr, ptr, ptr, ptr, ptr, ptr, ptr, ptr, ptr, ptr, ptr, ptr, ptr, %struct.anon.10, ptr, ptr, ptr, ptr, ptr, ptr, ptr, ptr, ptr, ptr, ptr, ptr, ptr, ptr, ptr, ptr, ptr, ptr, ptr, ptr, ptr, ptr, ptr, ptr, ptr, ptr, ptr, ptr, ptr, ptr, ptr, ptr, ptr, ptr, ptr, ptr, ptr, ptr, ptr, ptr, ptr, ptr, ptr, ptr, ptr, ptr, ptr, ptr, ptr }
%struct.anon.10 = type { ptr, ptr }

@.str.6 = private unnamed_addr constant [22 x i8] c"qemu_in_main_thread()\00", align 1
@.str.7 = private unnamed_addr constant [25 x i8] c"../qemu/block/snapshot.c\00", align 1
@.str.16 = private unnamed_addr constant [26 x i8] c"Device '%s' has no medium\00", align 1
@.str.17 = private unnamed_addr constant [35 x i8] c"snapshot_id and name are both NULL\00", align 1
@__PRETTY_FUNCTION__.bdrv_snapshot_load_tmp = private unnamed_addr constant [85 x i8] c"int bdrv_snapshot_load_tmp(BlockDriverState *, const char *, const char *, Error **)\00", align 1
@__func__.bdrv_snapshot_load_tmp = private unnamed_addr constant [23 x i8] c"bdrv_snapshot_load_tmp\00", align 1
@.str.19 = private unnamed_addr constant [23 x i8] c"Device is not readonly\00", align 1
@.str.20 = private unnamed_addr constant [94 x i8] c"Block format '%s' used by device '%s' does not support temporarily loading internal snapshots\00", align 1

; Function Attrs: nounwind sspstrong uwtable
define internal void @graph_lockable_auto_unlock_mainloop(ptr noundef %x) #0 {
entry:
  %x.addr = alloca ptr, align 8
  store ptr %x, ptr %x.addr, align 8
  call void @bdrv_graph_rdunlock_main_loop()
  ret void
}

; Function Attrs: nounwind sspstrong uwtable
define internal void @glib_autoptr_clear_GraphLockableMainloop(ptr noundef %_ptr) #0 {
entry:
  %_ptr.addr = alloca ptr, align 8
  store ptr %_ptr, ptr %_ptr.addr, align 8
  %0 = load ptr, ptr %_ptr.addr, align 8
  %tobool = icmp ne ptr %0, null
  br i1 %tobool, label %if.then, label %if.end

if.then:                                          ; preds = %entry
  %1 = load ptr, ptr %_ptr.addr, align 8
  call void @graph_lockable_auto_unlock_mainloop(ptr noundef %1)
  br label %if.end

if.end:                                           ; preds = %if.then, %entry
  ret void
}

; Function Attrs: nounwind sspstrong uwtable
define internal void @glib_autoptr_cleanup_GraphLockableMainloop(ptr noundef %_ptr) #0 {
entry:
  %_ptr.addr = alloca ptr, align 8
  store ptr %_ptr, ptr %_ptr.addr, align 8
  %0 = load ptr, ptr %_ptr.addr, align 8
  %1 = load ptr, ptr %0, align 8
  call void @glib_autoptr_clear_GraphLockableMainloop(ptr noundef %1)
  ret void
}

; Function Attrs: nounwind sspstrong uwtable
define internal ptr @graph_lockable_auto_lock_mainloop(ptr noundef %x) #0 {
entry:
  %x.addr = alloca ptr, align 8
  store ptr %x, ptr %x.addr, align 8
  call void @bdrv_graph_rdlock_main_loop()
  %0 = load ptr, ptr %x.addr, align 8
  ret ptr %0
}

; Function Attrs: nounwind sspstrong uwtable
define dso_local i32 @bdrv_snapshot_load_tmp(ptr noundef %bs, ptr noundef %snapshot_id, ptr noundef %name, ptr noundef %errp) #0 {
entry:
  %retval = alloca i32, align 4
  %bs.addr = alloca ptr, align 8
  %snapshot_id.addr = alloca ptr, align 8
  %name.addr = alloca ptr, align 8
  %errp.addr = alloca ptr, align 8
  %drv = alloca ptr, align 8
  %graph_lockable_auto7 = alloca ptr, align 8
  %.compoundliteral = alloca %struct.GraphLockableMainloop, align 1
  %cleanup.dest.slot = alloca i32, align 4
  store ptr %bs, ptr %bs.addr, align 8
  store ptr %snapshot_id, ptr %snapshot_id.addr, align 8
  store ptr %name, ptr %name.addr, align 8
  store ptr %errp, ptr %errp.addr, align 8
  %0 = load ptr, ptr %bs.addr, align 8
  %drv1 = getelementptr inbounds %struct.BlockDriverState, ptr %0, i32 0, i32 6
  %1 = load ptr, ptr %drv1, align 8
  store ptr %1, ptr %drv, align 8
  br label %do.body

do.body:                                          ; preds = %entry
  %call = call zeroext i1 @qemu_in_main_thread()
  br i1 %call, label %if.then, label %if.else

if.then:                                          ; preds = %do.body
  br label %if.end

if.else:                                          ; preds = %do.body
  call void @__assert_fail(ptr noundef @.str.6, ptr noundef @.str.7, i32 noundef 434, ptr noundef @__PRETTY_FUNCTION__.bdrv_snapshot_load_tmp) #6
  unreachable

if.end:                                           ; preds = %if.then
  br label %do.end

do.end:                                           ; preds = %if.end
  %call2 = call ptr @graph_lockable_auto_lock_mainloop(ptr noundef %.compoundliteral)
  store ptr %call2, ptr %graph_lockable_auto7, align 8
  %2 = load ptr, ptr %drv, align 8
  %tobool = icmp ne ptr %2, null
  br i1 %tobool, label %if.end5, label %if.then3

if.then3:                                         ; preds = %do.end
  %3 = load ptr, ptr %errp.addr, align 8
  %4 = load ptr, ptr %bs.addr, align 8
  %call4 = call ptr @bdrv_get_device_name(ptr noundef %4)
  call void (ptr, ptr, i32, ptr, ptr, ...) @error_setg_internal(ptr noundef %3, ptr noundef @.str.7, i32 noundef 438, ptr noundef @__func__.bdrv_snapshot_load_tmp, ptr noundef @.str.16, ptr noundef %call4)
  store i32 -123, ptr %retval, align 4
  store i32 1, ptr %cleanup.dest.slot, align 4
  br label %cleanup

if.end5:                                          ; preds = %do.end
  %5 = load ptr, ptr %snapshot_id.addr, align 8
  %tobool6 = icmp ne ptr %5, null
  br i1 %tobool6, label %if.end9, label %land.lhs.true

land.lhs.true:                                    ; preds = %if.end5
  %6 = load ptr, ptr %name.addr, align 8
  %tobool7 = icmp ne ptr %6, null
  br i1 %tobool7, label %if.end9, label %if.then8

if.then8:                                         ; preds = %land.lhs.true
  %7 = load ptr, ptr %errp.addr, align 8
  call void (ptr, ptr, i32, ptr, ptr, ...) @error_setg_internal(ptr noundef %7, ptr noundef @.str.7, i32 noundef 442, ptr noundef @__func__.bdrv_snapshot_load_tmp, ptr noundef @.str.17)
  store i32 -22, ptr %retval, align 4
  store i32 1, ptr %cleanup.dest.slot, align 4
  br label %cleanup

if.end9:                                          ; preds = %land.lhs.true, %if.end5
  %8 = load ptr, ptr %bs.addr, align 8
  %call10 = call zeroext i1 @bdrv_is_read_only(ptr noundef %8)
  br i1 %call10, label %if.end12, label %if.then11

if.then11:                                        ; preds = %if.end9
  %9 = load ptr, ptr %errp.addr, align 8
  call void (ptr, ptr, i32, ptr, ptr, ...) @error_setg_internal(ptr noundef %9, ptr noundef @.str.7, i32 noundef 446, ptr noundef @__func__.bdrv_snapshot_load_tmp, ptr noundef @.str.19)
  store i32 -22, ptr %retval, align 4
  store i32 1, ptr %cleanup.dest.slot, align 4
  br label %cleanup

if.end12:                                         ; preds = %if.end9
  %10 = load ptr, ptr %drv, align 8
  %bdrv_snapshot_load_tmp = getelementptr inbounds %struct.BlockDriver, ptr %10, i32 0, i32 39
  %11 = load ptr, ptr %bdrv_snapshot_load_tmp, align 8
  %tobool13 = icmp ne ptr %11, null
  br i1 %tobool13, label %if.then14, label %if.end17

if.then14:                                        ; preds = %if.end12
  %12 = load ptr, ptr %drv, align 8
  %bdrv_snapshot_load_tmp15 = getelementptr inbounds %struct.BlockDriver, ptr %12, i32 0, i32 39
  %13 = load ptr, ptr %bdrv_snapshot_load_tmp15, align 8
  %14 = load ptr, ptr %bs.addr, align 8
  %15 = load ptr, ptr %snapshot_id.addr, align 8
  %16 = load ptr, ptr %name.addr, align 8
  %17 = load ptr, ptr %errp.addr, align 8
  %call16 = call i32 %13(ptr noundef %14, ptr noundef %15, ptr noundef %16, ptr noundef %17)
  store i32 %call16, ptr %retval, align 4
  store i32 1, ptr %cleanup.dest.slot, align 4
  br label %cleanup

if.end17:                                         ; preds = %if.end12
  %18 = load ptr, ptr %errp.addr, align 8
  %19 = load ptr, ptr %drv, align 8
  %format_name = getelementptr inbounds %struct.BlockDriver, ptr %19, i32 0, i32 0
  %20 = load ptr, ptr %format_name, align 8
  %21 = load ptr, ptr %bs.addr, align 8
  %call18 = call ptr @bdrv_get_device_name(ptr noundef %21)
  call void (ptr, ptr, i32, ptr, ptr, ...) @error_setg_internal(ptr noundef %18, ptr noundef @.str.7, i32 noundef 454, ptr noundef @__func__.bdrv_snapshot_load_tmp, ptr noundef @.str.20, ptr noundef %20, ptr noundef %call18)
  store i32 -95, ptr %retval, align 4
  store i32 1, ptr %cleanup.dest.slot, align 4
  br label %cleanup

cleanup:                                          ; preds = %if.end17, %if.then14, %if.then11, %if.then8, %if.then3
  call void @glib_autoptr_cleanup_GraphLockableMainloop(ptr noundef %graph_lockable_auto7)
  %22 = load i32, ptr %retval, align 4
  ret i32 %22
}