; Function Attrs: nounwind sspstrong uwtable
define dso_local i32 @bdrv_snapshot_load_tmp(ptr noundef %bs, ptr noundef %snapshot_id, ptr noundef %name, ptr noundef %errp) local_unnamed_addr #0 {
entry:
  %drv1 = getelementptr inbounds nuw i8, ptr %bs, i64 16
  %0 = load ptr, ptr %drv1, align 8
  %call = tail call zeroext i1 @qemu_in_main_thread() #6
  br i1 %call, label %do.end, label %if.else

if.else:                                          ; preds = %entry
  tail call void @__assert_fail(ptr noundef nonnull @.str.6, ptr noundef nonnull @.str.7, i32 noundef 434, ptr noundef nonnull @__PRETTY_FUNCTION__.bdrv_snapshot_load_tmp) #7
  unreachable

do.end:                                           ; preds = %entry
  tail call void @bdrv_graph_rdlock_main_loop() #6
  %tobool.not = icmp eq ptr %0, null
  br i1 %tobool.not, label %if.then3, label %if.end5

if.then3:                                         ; preds = %do.end
  %call4 = tail call ptr @bdrv_get_device_name(ptr noundef nonnull %bs) #6
  tail call void (ptr, ptr, i32, ptr, ptr, ...) @error_setg_internal(ptr noundef %errp, ptr noundef nonnull @.str.7, i32 noundef 438, ptr noundef nonnull @__func__.bdrv_snapshot_load_tmp, ptr noundef nonnull @.str.16, ptr noundef %call4) #6
  br label %glib_autoptr_cleanup_GraphLockableMainloop.exit

if.end5:                                          ; preds = %do.end
  %tobool6 = icmp ne ptr %snapshot_id, null
  %tobool7 = icmp ne ptr %name, null
  %or.cond = or i1 %tobool6, %tobool7
  br i1 %or.cond, label %if.end9, label %if.then8

if.then8:                                         ; preds = %if.end5
  tail call void (ptr, ptr, i32, ptr, ptr, ...) @error_setg_internal(ptr noundef %errp, ptr noundef nonnull @.str.7, i32 noundef 442, ptr noundef nonnull @__func__.bdrv_snapshot_load_tmp, ptr noundef nonnull @.str.17) #6
  br label %glib_autoptr_cleanup_GraphLockableMainloop.exit

if.end9:                                          ; preds = %if.end5
  %call10 = tail call zeroext i1 @bdrv_is_read_only(ptr noundef nonnull %bs) #6
  br i1 %call10, label %if.end12, label %if.then11

if.then11:                                        ; preds = %if.end9
  tail call void (ptr, ptr, i32, ptr, ptr, ...) @error_setg_internal(ptr noundef %errp, ptr noundef nonnull @.str.7, i32 noundef 446, ptr noundef nonnull @__func__.bdrv_snapshot_load_tmp, ptr noundef nonnull @.str.19) #6
  br label %glib_autoptr_cleanup_GraphLockableMainloop.exit

if.end12:                                         ; preds = %if.end9
  %bdrv_snapshot_load_tmp = getelementptr inbounds nuw i8, ptr %0, i64 272
  %1 = load ptr, ptr %bdrv_snapshot_load_tmp, align 8
  %tobool13.not = icmp eq ptr %1, null
  br i1 %tobool13.not, label %if.end17, label %if.then14

if.then14:                                        ; preds = %if.end12
  %call16 = tail call i32 %1(ptr noundef nonnull %bs, ptr noundef %snapshot_id, ptr noundef %name, ptr noundef %errp) #6
  br label %glib_autoptr_cleanup_GraphLockableMainloop.exit

if.end17:                                         ; preds = %if.end12
  %2 = load ptr, ptr %0, align 8
  %call18 = tail call ptr @bdrv_get_device_name(ptr noundef nonnull %bs) #6
  tail call void (ptr, ptr, i32, ptr, ptr, ...) @error_setg_internal(ptr noundef %errp, ptr noundef nonnull @.str.7, i32 noundef 454, ptr noundef nonnull @__func__.bdrv_snapshot_load_tmp, ptr noundef nonnull @.str.20, ptr noundef %2, ptr noundef %call18) #6
  br label %glib_autoptr_cleanup_GraphLockableMainloop.exit

glib_autoptr_cleanup_GraphLockableMainloop.exit:  ; preds = %if.end17, %if.then14, %if.then11, %if.then8, %if.then3
  %retval.0 = phi i32 [ %call16, %if.then14 ], [ -95, %if.end17 ], [ -22, %if.then11 ], [ -22, %if.then8 ], [ -123, %if.then3 ]
  tail call void @bdrv_graph_rdunlock_main_loop() #6
  ret i32 %retval.0
}